target datalayout = "e-m:e-p270:32:32-p271:32:32-p272:64:64-i64:64-i128:128-f80:128-n8:16:32:64-S128"
target triple = "x86_64-pc-linux-gnu"

%"class.std::basic_string_view" = type { i64, ptr }

; Function Attrs: noreturn nounwind uwtable
define linkonce_odr hidden void @__clang_call_terminate(ptr noundef %0) #9 comdat {
  %2 = call ptr @__cxa_begin_catch(ptr %0) #16
  call void @_ZSt9terminatev() #20
  unreachable
}

; Function Attrs: mustprogress nounwind uwtable
define linkonce_odr dso_local noundef i32 @_ZNSt17basic_string_viewIcSt11char_traitsIcEE10_S_compareEmm(i64 noundef %0, i64 noundef %1) #1 comdat align 2 {
  %3 = alloca i32, align 4
  %4 = alloca i64, align 8
  %5 = alloca i64, align 8
  %6 = alloca i64, align 8
  store i64 %0, ptr %4, align 8
  store i64 %1, ptr %5, align 8
  %7 = load i64, ptr %4, align 8
  %8 = load i64, ptr %5, align 8
  %9 = sub i64 %7, %8
  store i64 %9, ptr %6, align 8
  %10 = load i64, ptr %6, align 8
  %11 = icmp sgt i64 %10, 2147483647
  br i1 %11, label %12, label %13

12:                                               ; preds = %2
  store i32 2147483647, ptr %3, align 4
  br label %20

13:                                               ; preds = %2
  %14 = load i64, ptr %6, align 8
  %15 = icmp slt i64 %14, -2147483648
  br i1 %15, label %16, label %17

16:                                               ; preds = %13
  store i32 -2147483648, ptr %3, align 4
  br label %20

17:                                               ; preds = %13
  %18 = load i64, ptr %6, align 8
  %19 = trunc i64 %18 to i32
  store i32 %19, ptr %3, align 4
  br label %20

20:                                               ; preds = %17, %16, %12
  %21 = load i32, ptr %3, align 4
  ret i32 %21
}

; Function Attrs: mustprogress nounwind uwtable
define linkonce_odr dso_local noundef i32 @_ZNSt11char_traitsIcE7compareEPKcS2_m(ptr noundef %0, ptr noundef %1, i64 noundef %2) #1 comdat align 2 {
  %4 = alloca i32, align 4
  %5 = alloca ptr, align 8
  %6 = alloca ptr, align 8
  %7 = alloca i64, align 8
  store ptr %0, ptr %5, align 8
  store ptr %1, ptr %6, align 8
  store i64 %2, ptr %7, align 8
  %8 = load i64, ptr %7, align 8
  %9 = icmp eq i64 %8, 0
  br i1 %9, label %10, label %11

10:                                               ; preds = %3
  store i32 0, ptr %4, align 4
  br label %16

11:                                               ; preds = %3
  %12 = load ptr, ptr %5, align 8
  %13 = load ptr, ptr %6, align 8
  %14 = load i64, ptr %7, align 8
  %15 = call i32 @memcmp(ptr noundef %12, ptr noundef %13, i64 noundef %14) #16
  store i32 %15, ptr %4, align 4
  br label %16

16:                                               ; preds = %11, %10
  %17 = load i32, ptr %4, align 4
  ret i32 %17
}

; Function Attrs: mustprogress nounwind uwtable
define linkonce_odr dso_local noundef nonnull align 8 dereferenceable(8) ptr @_ZSt3minImERKT_S2_S2_(ptr noundef nonnull align 8 dereferenceable(8) %0, ptr noundef nonnull align 8 dereferenceable(8) %1) #1 comdat {
  %3 = alloca ptr, align 8
  %4 = alloca ptr, align 8
  %5 = alloca ptr, align 8
  store ptr %0, ptr %4, align 8
  store ptr %1, ptr %5, align 8
  %6 = load ptr, ptr %5, align 8
  %7 = load i64, ptr %6, align 8
  %8 = load ptr, ptr %4, align 8
  %9 = load i64, ptr %8, align 8
  %10 = icmp ult i64 %7, %9
  br i1 %10, label %11, label %13

11:                                               ; preds = %2
  %12 = load ptr, ptr %5, align 8
  store ptr %12, ptr %3, align 8
  br label %15

13:                                               ; preds = %2
  %14 = load ptr, ptr %4, align 8
  store ptr %14, ptr %3, align 8
  br label %15

15:                                               ; preds = %13, %11
  %16 = load ptr, ptr %3, align 8
  ret ptr %16
}

; Function Attrs: mustprogress nounwind uwtable
define linkonce_odr dso_local noundef i32 @_ZNKSt17basic_string_viewIcSt11char_traitsIcEE7compareES2_(ptr noundef nonnull align 8 dereferenceable(16) %0, i64 %1, ptr %2) #1 comdat align 2 personality ptr @__gxx_personality_v0 {
  %4 = alloca %"class.std::basic_string_view", align 8
  %5 = alloca ptr, align 8
  %6 = alloca i64, align 8
  %7 = alloca i32, align 4
  %8 = getelementptr inbounds { i64, ptr }, ptr %4, i32 0, i32 0
  store i64 %1, ptr %8, align 8
  %9 = getelementptr inbounds { i64, ptr }, ptr %4, i32 0, i32 1
  store ptr %2, ptr %9, align 8
  store ptr %0, ptr %5, align 8
  %10 = load ptr, ptr %5, align 8
  %11 = getelementptr inbounds %"class.std::basic_string_view", ptr %10, i32 0, i32 0
  %12 = getelementptr inbounds %"class.std::basic_string_view", ptr %4, i32 0, i32 0
  %13 = call noundef nonnull align 8 dereferenceable(8) ptr @_ZSt3minImERKT_S2_S2_(ptr noundef nonnull align 8 dereferenceable(8) %11, ptr noundef nonnull align 8 dereferenceable(8) %12)
  %14 = load i64, ptr %13, align 8
  store i64 %14, ptr %6, align 8
  %15 = getelementptr inbounds %"class.std::basic_string_view", ptr %10, i32 0, i32 1
  %16 = load ptr, ptr %15, align 8
  %17 = getelementptr inbounds %"class.std::basic_string_view", ptr %4, i32 0, i32 1
  %18 = load ptr, ptr %17, align 8
  %19 = load i64, ptr %6, align 8
  %20 = invoke noundef i32 @_ZNSt11char_traitsIcE7compareEPKcS2_m(ptr noundef %16, ptr noundef %18, i64 noundef %19)
          to label %21 unwind label %32

21:                                               ; preds = %3
  store i32 %20, ptr %7, align 4
  %22 = load i32, ptr %7, align 4
  %23 = icmp eq i32 %22, 0
  br i1 %23, label %24, label %30

24:                                               ; preds = %21
  %25 = getelementptr inbounds %"class.std::basic_string_view", ptr %10, i32 0, i32 0
  %26 = load i64, ptr %25, align 8
  %27 = getelementptr inbounds %"class.std::basic_string_view", ptr %4, i32 0, i32 0
  %28 = load i64, ptr %27, align 8
  %29 = call noundef i32 @_ZNSt17basic_string_viewIcSt11char_traitsIcEE10_S_compareEmm(i64 noundef %26, i64 noundef %28) #16
  store i32 %29, ptr %7, align 4
  br label %30

30:                                               ; preds = %24, %21
  %31 = load i32, ptr %7, align 4
  ret i32 %31

32:                                               ; preds = %3
  %33 = landingpad { ptr, i32 }
          catch ptr null
  %34 = extractvalue { ptr, i32 } %33, 0
  call void @__clang_call_terminate(ptr %34) #20
  unreachable
}

; Function Attrs: mustprogress nounwind uwtable
define linkonce_odr dso_local noundef i64 @_ZNKSt17basic_string_viewIcSt11char_traitsIcEE4sizeEv(ptr noundef nonnull align 8 dereferenceable(16) %0) #1 comdat align 2 {
  %2 = alloca ptr, align 8
  store ptr %0, ptr %2, align 8
  %3 = load ptr, ptr %2, align 8
  %4 = getelementptr inbounds %"class.std::basic_string_view", ptr %3, i32 0, i32 0
  %5 = load i64, ptr %4, align 8
  ret i64 %5
}

; Function Attrs: mustprogress nounwind uwtable
define linkonce_odr dso_local noundef zeroext i1 @_ZSteqIcSt11char_traitsIcEEbNSt15__type_identityISt17basic_string_viewIT_T0_EE4typeES6_(i64 %0, ptr %1, i64 %2, ptr %3) #1 comdat {
  %5 = alloca %"class.std::basic_string_view", align 8
  %6 = alloca %"class.std::basic_string_view", align 8
  %7 = alloca %"class.std::basic_string_view", align 8
  %8 = getelementptr inbounds { i64, ptr }, ptr %5, i32 0, i32 0
  store i64 %0, ptr %8, align 8
  %9 = getelementptr inbounds { i64, ptr }, ptr %5, i32 0, i32 1
  store ptr %1, ptr %9, align 8
  %10 = getelementptr inbounds { i64, ptr }, ptr %6, i32 0, i32 0
  store i64 %2, ptr %10, align 8
  %11 = getelementptr inbounds { i64, ptr }, ptr %6, i32 0, i32 1
  store ptr %3, ptr %11, align 8
  %12 = call noundef i64 @_ZNKSt17basic_string_viewIcSt11char_traitsIcEE4sizeEv(ptr noundef nonnull align 8 dereferenceable(16) %5) #16
  %13 = call noundef i64 @_ZNKSt17basic_string_viewIcSt11char_traitsIcEE4sizeEv(ptr noundef nonnull align 8 dereferenceable(16) %6) #16
  %14 = icmp eq i64 %12, %13
  br i1 %14, label %15, label %22

15:                                               ; preds = %4
  call void @llvm.memcpy.p0.p0.i64(ptr align 8 %7, ptr align 8 %6, i64 16, i1 false)
  %16 = getelementptr inbounds { i64, ptr }, ptr %7, i32 0, i32 0
  %17 = load i64, ptr %16, align 8
  %18 = getelementptr inbounds { i64, ptr }, ptr %7, i32 0, i32 1
  %19 = load ptr, ptr %18, align 8
  %20 = call noundef i32 @_ZNKSt17basic_string_viewIcSt11char_traitsIcEE7compareES2_(ptr noundef nonnull align 8 dereferenceable(16) %5, i64 %17, ptr %19) #16
  %21 = icmp eq i32 %20, 0
  br label %22

22:                                               ; preds = %15, %4
  %23 = phi i1 [ false, %4 ], [ %21, %15 ]
  ret i1 %23
}

; Function Attrs: mustprogress nounwind uwtable
define linkonce_odr dso_local void @_ZNSt17basic_string_viewIcSt11char_traitsIcEEC2EPKcm(ptr noundef nonnull align 8 dereferenceable(16) %0, ptr noundef %1, i64 noundef %2) unnamed_addr #1 comdat align 2 {
  %4 = alloca ptr, align 8
  %5 = alloca ptr, align 8
  %6 = alloca i64, align 8
  store ptr %0, ptr %4, align 8
  store ptr %1, ptr %5, align 8
  store i64 %2, ptr %6, align 8
  %7 = load ptr, ptr %4, align 8
  %8 = getelementptr inbounds %"class.std::basic_string_view", ptr %7, i32 0, i32 0
  %9 = load i64, ptr %6, align 8
  store i64 %9, ptr %8, align 8
  %10 = getelementptr inbounds %"class.std::basic_string_view", ptr %7, i32 0, i32 1
  %11 = load ptr, ptr %5, align 8
  store ptr %11, ptr %10, align 8
  ret void
}

; Function Attrs: mustprogress nounwind uwtable
define internal noundef zeroext i1 @_ZL8endsWithRKNSt7__cxx1112basic_stringIcSt11char_traitsIcESaIcEEES6_(ptr noundef nonnull align 8 dereferenceable(32) %0, ptr noundef nonnull align 8 dereferenceable(32) %1) #1 {
  %3 = alloca i1, align 1
  %4 = alloca ptr, align 8
  %5 = alloca ptr, align 8
  %6 = alloca %"class.std::basic_string_view", align 8
  %7 = alloca %"class.std::basic_string_view", align 8
  store ptr %0, ptr %4, align 8
  store ptr %1, ptr %5, align 8
  %8 = load ptr, ptr %5, align 8
  %9 = call noundef i64 @_ZNKSt7__cxx1112basic_stringIcSt11char_traitsIcESaIcEE6lengthEv(ptr noundef nonnull align 8 dereferenceable(32) %8) #16
  %10 = load ptr, ptr %4, align 8
  %11 = call noundef i64 @_ZNKSt7__cxx1112basic_stringIcSt11char_traitsIcESaIcEE6lengthEv(ptr noundef nonnull align 8 dereferenceable(32) %10) #16
  %12 = icmp ugt i64 %9, %11
  br i1 %12, label %13, label %14

13:                                               ; preds = %2
  store i1 false, ptr %3, align 1
  br label %41

14:                                               ; preds = %2
  %15 = load ptr, ptr %5, align 8
  %16 = call { i64, ptr } @_ZNKSt7__cxx1112basic_stringIcSt11char_traitsIcESaIcEEcvSt17basic_string_viewIcS2_EEv(ptr noundef nonnull align 8 dereferenceable(32) %15) #16
  %17 = getelementptr inbounds { i64, ptr }, ptr %6, i32 0, i32 0
  %18 = extractvalue { i64, ptr } %16, 0
  store i64 %18, ptr %17, align 8
  %19 = getelementptr inbounds { i64, ptr }, ptr %6, i32 0, i32 1
  %20 = extractvalue { i64, ptr } %16, 1
  store ptr %20, ptr %19, align 8
  %21 = load ptr, ptr %4, align 8
  %22 = call noundef ptr @_ZNKSt7__cxx1112basic_stringIcSt11char_traitsIcESaIcEE5c_strEv(ptr noundef nonnull align 8 dereferenceable(32) %21) #16
  %23 = load ptr, ptr %4, align 8
  %24 = call noundef i64 @_ZNKSt7__cxx1112basic_stringIcSt11char_traitsIcESaIcEE6lengthEv(ptr noundef nonnull align 8 dereferenceable(32) %23) #16
  %25 = getelementptr inbounds i8, ptr %22, i64 %24
  %26 = load ptr, ptr %5, align 8
  %27 = call noundef i64 @_ZNKSt7__cxx1112basic_stringIcSt11char_traitsIcESaIcEE6lengthEv(ptr noundef nonnull align 8 dereferenceable(32) %26) #16
  %28 = sub i64 0, %27
  %29 = getelementptr inbounds i8, ptr %25, i64 %28
  %30 = load ptr, ptr %5, align 8
  %31 = call noundef i64 @_ZNKSt7__cxx1112basic_stringIcSt11char_traitsIcESaIcEE6lengthEv(ptr noundef nonnull align 8 dereferenceable(32) %30) #16
  call void @_ZNSt17basic_string_viewIcSt11char_traitsIcEEC2EPKcm(ptr noundef nonnull align 8 dereferenceable(16) %7, ptr noundef %29, i64 noundef %31) #16
  %32 = getelementptr inbounds { i64, ptr }, ptr %6, i32 0, i32 0
  %33 = load i64, ptr %32, align 8
  %34 = getelementptr inbounds { i64, ptr }, ptr %6, i32 0, i32 1
  %35 = load ptr, ptr %34, align 8
  %36 = getelementptr inbounds { i64, ptr }, ptr %7, i32 0, i32 0
  %37 = load i64, ptr %36, align 8
  %38 = getelementptr inbounds { i64, ptr }, ptr %7, i32 0, i32 1
  %39 = load ptr, ptr %38, align 8
  %40 = call noundef zeroext i1 @_ZSteqIcSt11char_traitsIcEEbNSt15__type_identityISt17basic_string_viewIT_T0_EE4typeES6_(i64 %33, ptr %35, i64 %37, ptr %39) #16
  store i1 %40, ptr %3, align 1
  br label %41

41:                                               ; preds = %14, %13
  %42 = load i1, ptr %3, align 1
  ret i1 %42
}